target datalayout = "e-m:e-p270:32:32-p271:32:32-p272:64:64-i64:64-i128:128-f80:128-n8:16:32:64-S128"
target triple = "x86_64-pc-linux-gnu"

%struct.VduseDev = type { ptr, [256 x %struct.VduseIovaRegion], i32, ptr, i32, i32, i16, i16, i64, ptr, i32, i32, ptr, ptr }
%struct.VduseIovaRegion = type { i64, i64, i64, i64 }
%struct.vduse_config_data = type { i32, i32, [0 x i8] }

; Function Attrs: nounwind uwtable
define dso_local i32 @vduse_dev_update_config(ptr noundef %0, i32 noundef %1, i32 noundef %2, ptr noundef %3) #0 {
  %5 = alloca i32, align 4
  %6 = alloca ptr, align 8
  %7 = alloca i32, align 4
  %8 = alloca i32, align 4
  %9 = alloca ptr, align 8
  %10 = alloca i32, align 4
  %11 = alloca ptr, align 8
  %12 = alloca i32, align 4
  store ptr %0, ptr %6, align 8
  store i32 %1, ptr %7, align 4
  store i32 %2, ptr %8, align 4
  store ptr %3, ptr %9, align 8
  call void @llvm.lifetime.start.p0(i64 4, ptr %10) #13
  store i32 0, ptr %10, align 4, !annotation !4
  call void @llvm.lifetime.start.p0(i64 8, ptr %11) #13
  store ptr null, ptr %11, align 8, !annotation !4
  %13 = load i32, ptr %7, align 4
  %14 = zext i32 %13 to i64
  %15 = add i64 8, %14
  %16 = call noalias ptr @malloc(i64 noundef %15) #16
  store ptr %16, ptr %11, align 8
  %17 = load ptr, ptr %11, align 8
  %18 = icmp ne ptr %17, null
  br i1 %18, label %20, label %19

19:                                               ; preds = %4
  store i32 -12, ptr %5, align 4
  store i32 1, ptr %12, align 4
  br label %56

20:                                               ; preds = %4
  %21 = load i32, ptr %8, align 4
  %22 = load ptr, ptr %11, align 8
  %23 = getelementptr inbounds nuw %struct.vduse_config_data, ptr %22, i32 0, i32 0
  store i32 %21, ptr %23, align 4
  %24 = load i32, ptr %7, align 4
  %25 = load ptr, ptr %11, align 8
  %26 = getelementptr inbounds nuw %struct.vduse_config_data, ptr %25, i32 0, i32 1
  store i32 %24, ptr %26, align 4
  %27 = load ptr, ptr %11, align 8
  %28 = getelementptr inbounds nuw %struct.vduse_config_data, ptr %27, i32 0, i32 2
  %29 = getelementptr inbounds [0 x i8], ptr %28, i64 0, i64 0
  %30 = load ptr, ptr %9, align 8
  %31 = load i32, ptr %7, align 4
  %32 = zext i32 %31 to i64
  call void @llvm.memcpy.p0.p0.i64(ptr align 4 %29, ptr align 1 %30, i64 %32, i1 false)
  %33 = load ptr, ptr %6, align 8
  %34 = getelementptr inbounds nuw %struct.VduseDev, ptr %33, i32 0, i32 10
  %35 = load i32, ptr %34, align 8
  %36 = load ptr, ptr %11, align 8
  %37 = call i32 (i32, i64, ...) @ioctl(i32 noundef %35, i64 noundef 1074299154, ptr noundef %36) #13
  store i32 %37, ptr %10, align 4
  %38 = load ptr, ptr %11, align 8
  call void @free(ptr noundef %38) #13
  %39 = load i32, ptr %10, align 4
  %40 = icmp ne i32 %39, 0
  br i1 %40, label %41, label %45

41:                                               ; preds = %20
  %42 = call ptr @__errno_location() #14
  %43 = load i32, ptr %42, align 4
  %44 = sub i32 0, %43
  store i32 %44, ptr %5, align 4
  store i32 1, ptr %12, align 4
  br label %56

45:                                               ; preds = %20
  %46 = load ptr, ptr %6, align 8
  %47 = getelementptr inbounds nuw %struct.VduseDev, ptr %46, i32 0, i32 10
  %48 = load i32, ptr %47, align 8
  %49 = call i32 (i32, i64, ...) @ioctl(i32 noundef %48, i64 noundef 33043) #13
  %50 = icmp ne i32 %49, 0
  br i1 %50, label %51, label %55

51:                                               ; preds = %45
  %52 = call ptr @__errno_location() #14
  %53 = load i32, ptr %52, align 4
  %54 = sub i32 0, %53
  store i32 %54, ptr %5, align 4
  store i32 1, ptr %12, align 4
  br label %56

55:                                               ; preds = %45
  store i32 0, ptr %5, align 4
  store i32 1, ptr %12, align 4
  br label %56

56:                                               ; preds = %55, %51, %41, %19
  call void @llvm.lifetime.end.p0(i64 8, ptr %11) #13
  call void @llvm.lifetime.end.p0(i64 4, ptr %10) #13
  %57 = load i32, ptr %5, align 4
  ret i32 %57
}