; Function Attrs: nounwind uwtable
define dso_local i32 @vduse_dev_update_config(ptr noundef readonly captures(none) %0, i32 noundef %1, i32 noundef %2, ptr noundef readonly captures(none) %3) local_unnamed_addr #2 {
  %5 = zext i32 %1 to i64
  %6 = add nuw nsw i64 %5, 8
  %7 = tail call noalias ptr @malloc(i64 noundef %6) #25
  %.not = icmp eq ptr %7, null
  br i1 %.not, label %20, label %8

8:                                                ; preds = %4
  store i32 %2, ptr %7, align 4
  %9 = getelementptr inbounds nuw i8, ptr %7, i64 4
  store i32 %1, ptr %9, align 4
  %10 = getelementptr inbounds nuw i8, ptr %7, i64 8
  tail call void @llvm.memcpy.p0.p0.i64(ptr nonnull align 4 %10, ptr align 1 %3, i64 %5, i1 false)
  %11 = getelementptr inbounds nuw i8, ptr %0, i64 8248
  %12 = load i32, ptr %11, align 8
  %13 = tail call i32 (i32, i64, ...) @ioctl(i32 noundef %12, i64 noundef 1074299154, ptr noundef nonnull %7) #20
  tail call void @free(ptr noundef nonnull %7) #20
  %.not15 = icmp eq i32 %13, 0
  br i1 %.not15, label %14, label %.sink.split

14:                                               ; preds = %8
  %15 = load i32, ptr %11, align 8
  %16 = tail call i32 (i32, i64, ...) @ioctl(i32 noundef %15, i64 noundef 33043) #20
  %.not16 = icmp eq i32 %16, 0
  br i1 %.not16, label %20, label %.sink.split

.sink.split:                                      ; preds = %14, %8
  %17 = tail call ptr @__errno_location() #21
  %18 = load i32, ptr %17, align 4
  %19 = sub i32 0, %18
  br label %20

20:                                               ; preds = %.sink.split, %14, %4
  %.0 = phi i32 [ -12, %4 ], [ 0, %14 ], [ %19, %.sink.split ]
  ret i32 %.0
}